Certificate:
    Data:
        Version: 3 (0x2)
        Serial Number: 4096 (0x1000)
        Signature Algorithm: sha1WithRSAEncryption
        Issuer: C=US, ST=WA, L=Spokane, O=Monkey Puzzle Software, OU=Development
        Validity
            Not Before: Aug  9 19:51:34 2014 GMT
            Not After : Aug  6 19:51:34 2024 GMT
        Subject: C=US, ST=WA, O=Monkey Puzzle Software, OU=Development, CN=schoenberg.local/emailAddress=luke@bowbak.org
        Subject Public Key Info:
            Public Key Algorithm: rsaEncryption
            RSA Public Key: (2048 bit)
                Modulus (2048 bit):
                    00:cd:97:22:ad:ca:37:f7:d8:17:4d:06:03:5d:87:
                    d1:2f:67:21:cb:87:50:5c:3a:0c:b8:00:26:7b:e5:
                    c4:48:3b:1d:33:26:ee:65:6c:54:e1:b2:22:93:a8:
                    7d:29:0f:94:a0:3e:4b:1e:88:b3:85:c5:dd:a6:5a:
                    93:91:4a:90:24:f0:d9:b5:a2:0c:05:e7:60:77:52:
                    02:aa:79:97:b4:1a:88:57:03:13:90:b8:05:ab:0b:
                    1a:4c:15:d9:b5:7a:3c:b2:31:14:00:05:4d:05:5a:
                    18:a1:6e:8a:d6:6b:e2:4e:80:47:cb:65:91:6a:8b:
                    de:55:4c:b0:87:fb:a0:0a:36:7c:01:dd:62:36:8e:
                    e4:d6:0a:9e:b9:90:3c:1c:40:80:fe:b1:b9:ca:a7:
                    0e:1c:a4:8f:8d:a3:52:9b:05:dd:e1:f0:c0:98:f2:
                    b0:44:2a:cd:67:a5:a6:b9:84:7a:9b:d1:83:5c:25:
                    e7:0e:d7:e2:f2:1c:4a:17:1d:ab:ef:bb:45:fe:15:
                    e5:2a:9a:09:de:c8:62:65:b3:28:25:df:d7:35:9c:
                    2b:bd:32:af:a9:7d:d6:22:45:96:6a:9c:51:0c:4f:
                    19:ee:2a:a1:ce:d8:1d:eb:41:07:4e:7d:bd:0b:d9:
                    22:e2:aa:79:f5:b3:14:c1:38:4b:5a:e2:b8:c0:a2:
                    1a:b1
                Exponent: 65537 (0x10001)
        X509v3 extensions:
            X509v3 Basic Constraints: 
                CA:FALSE
            Netscape Comment: 
                OpenSSL Generated Certificate
            X509v3 Subject Key Identifier: 
                98:9D:5D:4B:E4:14:EC:26:98:66:C4:6C:5E:B7:CA:2E:A7:FD:77:66
            X509v3 Authority Key Identifier: 
                keyid:78:99:AE:3F:6A:C8:97:D7:AC:5F:D2:5E:6A:DD:44:0E:AA:D2:F8:84

    Signature Algorithm: sha1WithRSAEncryption
        7b:92:9c:db:16:59:c1:1d:33:53:5a:d8:f0:e7:9c:c4:d8:cb:
        d7:44:31:97:56:a1:2d:27:a9:84:23:3f:03:39:34:5c:61:7b:
        c7:68:e5:8d:1c:bd:58:0c:d3:f3:a6:18:e1:9d:d6:1a:b4:91:
        3e:44:d5:ed:b7:19:c6:4a:2a:5e:72:58:fc:f9:26:cf:dc:27:
        e6:47:03:47:4d:b2:57:89:bf:65:6f:02:07:4d:b9:43:4d:5b:
        94:dc:a1:77:80:da:d4:45:19:68:55:44:84:63:53:08:1c:94:
        f2:d9:7d:67:53:40:af:76:b5:a6:29:58:2e:1a:db:19:62:36:
        b9:a2:ee:63:12:df:2e:25:c0:8a:38:dd:37:4f:e7:f7:d9:8b:
        ac:9d:bd:08:ca:78:97:86:02:47:90:de:8a:c1:3e:ef:fe:1f:
        28:e1:2a:99:7e:85:2e:c2:b0:c7:15:82:f5:13:27:0c:f0:b9:
        c5:25:65:72:ad:27:dc:4f:6e:78:64:2d:5d:63:72:4a:00:4b:
        ca:46:04:83:54:64:f4:13:ec:44:dd:95:68:28:8e:00:ca:32:
        85:6e:af:dc:c4:31:40:3d:f7:da:37:41:4c:e5:79:16:29:67:
        9d:4c:db:28:f6:cd:7e:63:49:f7:99:12:c0:36:ec:a0:10:59:
        5d:2c:82:75
-----BEGIN CERTIFICATE-----
MIID5zCCAs+gAwIBAgICEAAwDQYJKoZIhvcNAQEFBQAwYzELMAkGA1UEBhMCVVMx
CzAJBgNVBAgMAldBMRAwDgYDVQQHDAdTcG9rYW5lMR8wHQYDVQQKDBZNb25rZXkg
UHV6emxlIFNvZnR3YXJlMRQwEgYDVQQLDAtEZXZlbG9wbWVudDAeFw0xNDA4MDkx
OTUxMzRaFw0yNDA4MDYxOTUxMzRaMIGMMQswCQYDVQQGEwJVUzELMAkGA1UECAwC
V0ExHzAdBgNVBAoMFk1vbmtleSBQdXp6bGUgU29mdHdhcmUxFDASBgNVBAsMC0Rl
dmVsb3BtZW50MRkwFwYDVQQDDBBzY2hvZW5iZXJnLmxvY2FsMR4wHAYJKoZIhvcN
AQkBFg9sdWtlQGJvd2Jhay5vcmcwggEiMA0GCSqGSIb3DQEBAQUAA4IBDwAwggEK
AoIBAQDNlyKtyjf32BdNBgNdh9EvZyHLh1BcOgy4ACZ75cRIOx0zJu5lbFThsiKT
qH0pD5SgPkseiLOFxd2mWpORSpAk8Nm1ogwF52B3UgKqeZe0GohXAxOQuAWrCxpM
Fdm1ejyyMRQABU0FWhihborWa+JOgEfLZZFqi95VTLCH+6AKNnwB3WI2juTWCp65
kDwcQID+sbnKpw4cpI+No1KbBd3h8MCY8rBEKs1npaa5hHqb0YNcJecO1+LyHEoX
Havvu0X+FeUqmgneyGJlsygl39c1nCu9Mq+pfdYiRZZqnFEMTxnuKqHO2B3rQQdO
fb0L2SLiqnn1sxTBOEta4rjAohqxAgMBAAGjezB5MAkGA1UdEwQCMAAwLAYJYIZI
AYb4QgENBB8WHU9wZW5TU0wgR2VuZXJhdGVkIENlcnRpZmljYXRlMB0GA1UdDgQW
BBSYnV1L5BTsJphmxGxet8oup/13ZjAfBgNVHSMEGDAWgBR4ma4/asiX16xf0l5q
3UQOqtL4hDANBgkqhkiG9w0BAQUFAAOCAQEAe5Kc2xZZwR0zU1rY8OecxNjL10Qx
l1ahLSephCM/Azk0XGF7x2jljRy9WAzT86YY4Z3WGrSRPkTV7bcZxkoqXnJY/Pkm
z9wn5kcDR02yV4m/ZW8CB025Q01blNyhd4Da1EUZaFVEhGNTCByU8tl9Z1NAr3a1
pilYLhrbGWI2uaLuYxLfLiXAijjdN0/n99mLrJ29CMp4l4YCR5DeisE+7/4fKOEq
mX6FLsKwxxWC9RMnDPC5xSVlcq0n3E9ueGQtXWNySgBLykYEg1Rk9BPsRN2VaCiO
AMoyhW6v3MQxQD332jdBTOV5FilnnUzbKPbNfmNJ95kSwDbsoBBZXSyCdQ==
-----END CERTIFICATE-----
-----BEGIN CERTIFICATE-----
MIIDmTCCAoGgAwIBAgIJAOGMJI1sSfyrMA0GCSqGSIb3DQEBBQUAMGMxCzAJBgNV
BAYTAlVTMQswCQYDVQQIDAJXQTEQMA4GA1UEBwwHU3Bva2FuZTEfMB0GA1UECgwW
TW9ua2V5IFB1enpsZSBTb2Z0d2FyZTEUMBIGA1UECwwLRGV2ZWxvcG1lbnQwHhcN
MTQwODA5MTk0ODI0WhcNMjQwODA2MTk0ODI0WjBjMQswCQYDVQQGEwJVUzELMAkG
A1UECAwCV0ExEDAOBgNVBAcMB1Nwb2thbmUxHzAdBgNVBAoMFk1vbmtleSBQdXp6
bGUgU29mdHdhcmUxFDASBgNVBAsMC0RldmVsb3BtZW50MIIBIjANBgkqhkiG9w0B
AQEFAAOCAQ8AMIIBCgKCAQEAtKr8JtetVP0Rb6VK20wA26jZEnkbrtPcrtWhhJCM
H2CReYxutYG9y/kb4HH+I5R37dENotQqZcSCo1k2001Wakt1VRXahfmnVxqrqXBx
fxDkWXIzFH4MBqKz0l9nMDPUfCt+6OVDe4zQ+d9umPfbw17mOgA7aUysG62hFNdD
Gstn9GfufaTdg6ihJQ20fNfUWSlpS0iBoYMNMSZ3Gp/eicKBDJqWBpnX/H8YkOzF
UGC77c0jaobZbATrQecvR8FdhtdN6BVLVn5x40Eif7MEr3oakF2abk8TbukCV01J
KQbawkMwn3kX4x+68Kx6yuylVHJxwdhWIA/LJf/ZYFXQgwIDAQABo1AwTjAdBgNV
HQ4EFgQUeJmuP2rIl9esX9Jeat1EDqrS+IQwHwYDVR0jBBgwFoAUeJmuP2rIl9es
X9Jeat1EDqrS+IQwDAYDVR0TBAUwAwEB/zANBgkqhkiG9w0BAQUFAAOCAQEArcRk
LaZSXQz22I3Okscdue5IZytRQ3bINhONIVRtGHE0rQ84FD76IGSt8JrKYcc4eXF3
I0CPFO276EqP7ze7KALykdSziYjZvh7x+pfQyu9QJlzWAtpAxNcgU0unizww6uRU
rwpYUeh3XMzOhbdhyC1f1rORRGaIDI2uY/fFuNbEpt7XF23C+lbWMnMuQ9q49S7s
w8Y9LO2XrpVCZMxiu6Ryw9f6p6iqA4klpne+eT5zy5jqxsOJ6dKv65/5Z93c2hzM
X7AyspPapVeDtY3n4L1FYHlLZNwZKeroszWtU60DavYAO3OEoIsHK32yzHt3wguY
JefZUvP8kC6gHNMgQQ==
-----END CERTIFICATE-----
